target datalayout = "e-m:e-p270:32:32-p271:32:32-p272:64:64-i64:64-i128:128-f80:128-n8:16:32:64-S128"
target triple = "x86_64-pc-linux-gnu"

%struct.pmix_lock_t = type { i32, %struct.pmix_mutex_t, %union.pthread_cond_t, i8 }
%struct.pmix_mutex_t = type { %struct.pmix_object_t, %union.pthread_mutex_t }
%struct.pmix_object_t = type { %union.pthread_mutex_t, ptr, i32, %struct.pmix_tma }
%struct.pmix_tma = type { ptr, ptr, ptr, ptr, ptr, ptr, ptr, ptr }
%union.pthread_mutex_t = type { %struct.__pthread_mutex_s }
%struct.__pthread_mutex_s = type { i32, i32, i32, i32, i32, i16, i16, %struct.__pthread_internal_list }
%struct.__pthread_internal_list = type { ptr, ptr }
%union.pthread_cond_t = type { %struct.__pthread_cond_s }
%struct.__pthread_cond_s = type { %union.__atomic_wide_counter, %union.__atomic_wide_counter, [2 x i32], [2 x i32], i32, i32, [2 x i32] }
%union.__atomic_wide_counter = type { i64 }
%struct.pmix_list_t = type { %struct.pmix_object_t, %struct.pmix_list_item_t, i64 }
%struct.pmix_list_item_t = type { %struct.pmix_object_t, ptr, ptr, i32 }
%struct.timeval = type { i64, i64 }
%struct.pmix_output_desc_t = type { i8, i8, i32, i8, i32, ptr, ptr, i32, ptr, i32, i8, i8, i8, i8, ptr, i32, i32 }
%struct.pmix_iof_flags_t = type { i8, i8, i8, i8, i8, i8, i8, ptr, ptr, i8, i8, i8, i8, i8, i8 }
%struct.event = type { %struct.event_callback, %union.anon.2, i32, ptr, %union.anon.4, i16, i16, %struct.timeval }
%struct.event_callback = type { %struct.anon.0, i16, i8, i8, %union.anon.1, ptr }
%struct.anon.0 = type { ptr, ptr }
%union.anon.1 = type { ptr }
%union.anon.2 = type { %struct.anon.3 }
%struct.anon.3 = type { ptr, ptr }
%union.anon.4 = type { %struct.anon.5 }
%struct.anon.5 = type { %struct.anon.6, %struct.timeval }
%struct.anon.6 = type { ptr, ptr }
%struct.pmix_peer_t = type { %struct.pmix_object_t, ptr, ptr, %struct.pmix_proc_type_t, i16, i32, i32, i32, i8, %struct.event, i8, %struct.event, i8, %struct.pmix_list_t, ptr, ptr, i32, %struct.pmix_epilog_t }
%struct.pmix_proc_type_t = type { i32, i8, i8, i8, i8 }
%struct.pmix_epilog_t = type { i32, i32, %struct.pmix_list_t, %struct.pmix_list_t, %struct.pmix_list_t }
%struct.pmix_namespace_t = type { %struct.pmix_list_item_t, ptr, %struct.anon.10, i32, i64, i64, i8, i8, ptr, i64, i64, %struct.pmix_list_t, %struct.pmix_personality_t, %struct.pmix_epilog_t, %struct.pmix_list_t, %struct.pmix_iof_flags_t, %struct.pmix_list_t }
%struct.anon.10 = type { i8, i8, i8 }
%struct.pmix_personality_t = type { i8, ptr, ptr, ptr }
%struct.pmix_bfrops_module_t = type { ptr, ptr, ptr, ptr, ptr, ptr, ptr, ptr, ptr, ptr, ptr, ptr, ptr }
%struct.pmix_buffer_t = type { %struct.pmix_object_t, i8, ptr, ptr, ptr, i64, i64 }
%struct.pmix_ltcaddy_t = type { %struct.pmix_object_t, %struct.event, %struct.pmix_lock_t, i32, ptr, ptr }

@pmix_output_info = external global [0 x %struct.pmix_output_desc_t], align 8
@.str.2 = private unnamed_addr constant [18 x i8] c"common/pmix_iof.c\00", align 1
@pmix_bfrops_base_output = external global i32, align 4
@.str.42 = private unnamed_addr constant [34 x i8] c"[%s:%d] UNPACK version %s type %s\00", align 1

; Function Attrs: nounwind uwtable
define internal void @stdincbfunc(ptr noundef %0, ptr noundef %1, ptr noundef %2, ptr noundef %3) #0 {
  %5 = alloca ptr, align 8
  %6 = alloca ptr, align 8
  %7 = alloca ptr, align 8
  %8 = alloca ptr, align 8
  %9 = alloca ptr, align 8
  %10 = alloca i32, align 4
  %11 = alloca i32, align 4
  %12 = alloca i32, align 4
  %13 = alloca i32, align 4
  store ptr %0, ptr %5, align 8, !tbaa !98
  store ptr %1, ptr %6, align 8, !tbaa !14
  store ptr %2, ptr %7, align 8, !tbaa !14
  store ptr %3, ptr %8, align 8, !tbaa !14
  call void @llvm.lifetime.start.p0(i64 8, ptr %9) #13
  %14 = load ptr, ptr %8, align 8, !tbaa !14
  store ptr %14, ptr %9, align 8, !tbaa !14
  call void @llvm.lifetime.start.p0(i64 4, ptr %10) #13
  call void @llvm.lifetime.start.p0(i64 4, ptr %11) #13
  call void @llvm.lifetime.start.p0(i64 4, ptr %12) #13
  %15 = load ptr, ptr %7, align 8, !tbaa !14
  %16 = getelementptr inbounds nuw %struct.pmix_buffer_t, ptr %15, i32 0, i32 6
  %17 = load i64, ptr %16, align 8, !tbaa !200
  %18 = icmp eq i64 0, %17
  br i1 %18, label %27, label %19

19:                                               ; preds = %4
  %20 = load ptr, ptr %7, align 8, !tbaa !14
  %21 = getelementptr inbounds nuw %struct.pmix_buffer_t, ptr %20, i32 0, i32 3
  %22 = load ptr, ptr %21, align 8, !tbaa !201
  %23 = load ptr, ptr %7, align 8, !tbaa !14
  %24 = getelementptr inbounds nuw %struct.pmix_buffer_t, ptr %23, i32 0, i32 4
  %25 = load ptr, ptr %24, align 8, !tbaa !202
  %26 = icmp eq ptr %22, %25
  br i1 %26, label %27, label %41

27:                                               ; preds = %19, %4
  %28 = load ptr, ptr %9, align 8, !tbaa !14
  %29 = getelementptr inbounds nuw %struct.pmix_ltcaddy_t, ptr %28, i32 0, i32 4
  %30 = load ptr, ptr %29, align 8, !tbaa !177
  %31 = icmp ne ptr null, %30
  br i1 %31, label %32, label %39

32:                                               ; preds = %27
  %33 = load ptr, ptr %9, align 8, !tbaa !14
  %34 = getelementptr inbounds nuw %struct.pmix_ltcaddy_t, ptr %33, i32 0, i32 4
  %35 = load ptr, ptr %34, align 8, !tbaa !177
  %36 = load ptr, ptr %9, align 8, !tbaa !14
  %37 = getelementptr inbounds nuw %struct.pmix_ltcaddy_t, ptr %36, i32 0, i32 5
  %38 = load ptr, ptr %37, align 8, !tbaa !179
  call void %35(i32 noundef -49, ptr noundef %38)
  br label %39

39:                                               ; preds = %32, %27
  %40 = load ptr, ptr %9, align 8, !tbaa !14
  call void @free(ptr noundef %40) #13
  store i32 1, ptr %13, align 4
  br label %113

41:                                               ; preds = %19
  store i32 1, ptr %10, align 4, !tbaa !81
  br label %42

42:                                               ; preds = %41
  %43 = load i32, ptr @pmix_bfrops_base_output, align 4, !tbaa !81
  %44 = icmp sge i32 %43, 0
  br i1 %44, label %45, label %66

45:                                               ; preds = %42
  %46 = load i32, ptr @pmix_bfrops_base_output, align 4, !tbaa !81
  %47 = icmp slt i32 %46, 64
  br i1 %47, label %48, label %66

48:                                               ; preds = %45
  %49 = load i32, ptr @pmix_bfrops_base_output, align 4, !tbaa !81
  %50 = sext i32 %49 to i64
  %51 = getelementptr inbounds [0 x %struct.pmix_output_desc_t], ptr @pmix_output_info, i64 0, i64 %50
  %52 = getelementptr inbounds nuw %struct.pmix_output_desc_t, ptr %51, i32 0, i32 2
  %53 = load i32, ptr %52, align 4, !tbaa !41
  %54 = icmp sge i32 %53, 2
  br i1 %54, label %55, label %66

55:                                               ; preds = %48
  %56 = load i32, ptr @pmix_bfrops_base_output, align 4, !tbaa !81
  %57 = load ptr, ptr %5, align 8, !tbaa !98
  %58 = getelementptr inbounds nuw %struct.pmix_peer_t, ptr %57, i32 0, i32 1
  %59 = load ptr, ptr %58, align 8, !tbaa !87
  %60 = getelementptr inbounds nuw %struct.pmix_namespace_t, ptr %59, i32 0, i32 12
  %61 = getelementptr inbounds nuw %struct.pmix_personality_t, ptr %60, i32 0, i32 1
  %62 = load ptr, ptr %61, align 8, !tbaa !88
  %63 = getelementptr inbounds nuw %struct.pmix_bfrops_module_t, ptr %62, i32 0, i32 0
  %64 = load ptr, ptr %63, align 8, !tbaa !92
  %65 = call ptr @PMIx_Data_type_string(i16 noundef zeroext 20)
  call void (i32, ptr, ...) @pmix_output(i32 noundef %56, ptr noundef @.str.42, ptr noundef @.str.2, i32 noundef 530, ptr noundef %64, ptr noundef %65)
  br label %66

66:                                               ; preds = %55, %48, %45, %42
  %67 = load ptr, ptr %7, align 8, !tbaa !14
  %68 = getelementptr inbounds nuw %struct.pmix_buffer_t, ptr %67, i32 0, i32 1
  %69 = load i8, ptr %68, align 8, !tbaa !94
  %70 = zext i8 %69 to i32
  %71 = load ptr, ptr %5, align 8, !tbaa !98
  %72 = getelementptr inbounds nuw %struct.pmix_peer_t, ptr %71, i32 0, i32 1
  %73 = load ptr, ptr %72, align 8, !tbaa !87
  %74 = getelementptr inbounds nuw %struct.pmix_namespace_t, ptr %73, i32 0, i32 12
  %75 = getelementptr inbounds nuw %struct.pmix_personality_t, ptr %74, i32 0, i32 0
  %76 = load i8, ptr %75, align 8, !tbaa !96
  %77 = zext i8 %76 to i32
  %78 = icmp eq i32 %70, %77
  br i1 %78, label %79, label %90

79:                                               ; preds = %66
  %80 = load ptr, ptr %5, align 8, !tbaa !98
  %81 = getelementptr inbounds nuw %struct.pmix_peer_t, ptr %80, i32 0, i32 1
  %82 = load ptr, ptr %81, align 8, !tbaa !87
  %83 = getelementptr inbounds nuw %struct.pmix_namespace_t, ptr %82, i32 0, i32 12
  %84 = getelementptr inbounds nuw %struct.pmix_personality_t, ptr %83, i32 0, i32 1
  %85 = load ptr, ptr %84, align 8, !tbaa !88
  %86 = getelementptr inbounds nuw %struct.pmix_bfrops_module_t, ptr %85, i32 0, i32 4
  %87 = load ptr, ptr %86, align 8, !tbaa !151
  %88 = load ptr, ptr %7, align 8, !tbaa !14
  %89 = call i32 %87(ptr noundef %88, ptr noundef %12, ptr noundef %10, i16 noundef zeroext 20)
  store i32 %89, ptr %11, align 4, !tbaa !81
  br label %91

90:                                               ; preds = %66
  store i32 -20, ptr %11, align 4, !tbaa !81
  br label %91

91:                                               ; preds = %90, %79
  br label %92

92:                                               ; preds = %91
  br label %93

93:                                               ; preds = %92
  %94 = load i32, ptr %11, align 4, !tbaa !81
  %95 = icmp ne i32 0, %94
  br i1 %95, label %96, label %98

96:                                               ; preds = %93
  %97 = load i32, ptr %11, align 4, !tbaa !81
  store i32 %97, ptr %12, align 4, !tbaa !81
  br label %98

98:                                               ; preds = %96, %93
  %99 = load ptr, ptr %9, align 8, !tbaa !14
  %100 = getelementptr inbounds nuw %struct.pmix_ltcaddy_t, ptr %99, i32 0, i32 4
  %101 = load ptr, ptr %100, align 8, !tbaa !177
  %102 = icmp ne ptr null, %101
  br i1 %102, label %103, label %111

103:                                              ; preds = %98
  %104 = load ptr, ptr %9, align 8, !tbaa !14
  %105 = getelementptr inbounds nuw %struct.pmix_ltcaddy_t, ptr %104, i32 0, i32 4
  %106 = load ptr, ptr %105, align 8, !tbaa !177
  %107 = load i32, ptr %12, align 4, !tbaa !81
  %108 = load ptr, ptr %9, align 8, !tbaa !14
  %109 = getelementptr inbounds nuw %struct.pmix_ltcaddy_t, ptr %108, i32 0, i32 5
  %110 = load ptr, ptr %109, align 8, !tbaa !179
  call void %106(i32 noundef %107, ptr noundef %110)
  br label %111

111:                                              ; preds = %103, %98
  %112 = load ptr, ptr %9, align 8, !tbaa !14
  call void @free(ptr noundef %112) #13
  store i32 0, ptr %13, align 4
  br label %113

113:                                              ; preds = %111, %39
  call void @llvm.lifetime.end.p0(i64 4, ptr %12) #13
  call void @llvm.lifetime.end.p0(i64 4, ptr %11) #13
  call void @llvm.lifetime.end.p0(i64 4, ptr %10) #13
  call void @llvm.lifetime.end.p0(i64 8, ptr %9) #13
  %114 = load i32, ptr %13, align 4
  switch i32 %114, label %116 [
    i32 0, label %115
    i32 1, label %115
  ]

115:                                              ; preds = %113, %113
  ret void

116:                                              ; preds = %113
  unreachable
}