; Function Attrs: nounwind uwtable
define internal void @stdincbfunc(ptr noundef readonly captures(none) %0, ptr readnone captures(none) %1, ptr noundef %2, ptr noundef captures(none) %3) #0 {
  %5 = alloca i32, align 4
  %6 = alloca i32, align 4
  call void @llvm.lifetime.start.p0(i64 4, ptr nonnull %5) #18
  call void @llvm.lifetime.start.p0(i64 4, ptr nonnull %6) #18
  %7 = getelementptr inbounds nuw i8, ptr %2, i64 160
  %8 = load i64, ptr %7, align 8, !tbaa !177
  %9 = icmp eq i64 %8, 0
  br i1 %9, label %16, label %10

10:                                               ; preds = %4
  %11 = getelementptr inbounds nuw i8, ptr %2, i64 136
  %12 = load ptr, ptr %11, align 8, !tbaa !178
  %13 = getelementptr inbounds nuw i8, ptr %2, i64 144
  %14 = load ptr, ptr %13, align 8, !tbaa !179
  %15 = icmp eq ptr %12, %14
  br i1 %15, label %16, label %23

16:                                               ; preds = %10, %4
  %17 = getelementptr inbounds nuw i8, ptr %3, i64 480
  %18 = load ptr, ptr %17, align 8, !tbaa !156
  %.not23 = icmp eq ptr %18, null
  br i1 %.not23, label %22, label %19

19:                                               ; preds = %16
  %20 = getelementptr inbounds nuw i8, ptr %3, i64 488
  %21 = load ptr, ptr %20, align 8, !tbaa !158
  tail call void %18(i32 noundef -49, ptr noundef %21) #18
  br label %22

22:                                               ; preds = %19, %16
  tail call void @free(ptr noundef nonnull %3) #18
  br label %59

23:                                               ; preds = %10
  store i32 1, ptr %5, align 4, !tbaa !63
  %24 = load i32, ptr @pmix_bfrops_base_output, align 4, !tbaa !63
  %or.cond = icmp ult i32 %24, 64
  br i1 %or.cond, label %25, label %37

25:                                               ; preds = %23
  %26 = zext nneg i32 %24 to i64
  %27 = getelementptr inbounds nuw [0 x %struct.pmix_output_desc_t], ptr @pmix_output_info, i64 0, i64 %26, i32 2
  %28 = load i32, ptr %27, align 4, !tbaa !36
  %29 = icmp sgt i32 %28, 1
  br i1 %29, label %30, label %37

30:                                               ; preds = %25
  %31 = getelementptr inbounds nuw i8, ptr %0, i64 120
  %32 = load ptr, ptr %31, align 8, !tbaa !92
  %33 = getelementptr inbounds nuw i8, ptr %32, i64 488
  %34 = load ptr, ptr %33, align 8, !tbaa !93
  %35 = load ptr, ptr %34, align 8, !tbaa !97
  %36 = tail call ptr @PMIx_Data_type_string(i16 noundef zeroext 20) #18
  tail call void (i32, ptr, ...) @pmix_output(i32 noundef %24, ptr noundef nonnull @.str.42, ptr noundef nonnull @.str.2, i32 noundef 530, ptr noundef %35, ptr noundef %36) #18
  br label %37

37:                                               ; preds = %30, %25, %23
  %38 = getelementptr inbounds nuw i8, ptr %2, i64 120
  %39 = load i8, ptr %38, align 8, !tbaa !99
  %40 = getelementptr inbounds nuw i8, ptr %0, i64 120
  %41 = load ptr, ptr %40, align 8, !tbaa !92
  %42 = getelementptr inbounds nuw i8, ptr %41, i64 480
  %43 = load i8, ptr %42, align 8, !tbaa !101
  %44 = icmp eq i8 %39, %43
  br i1 %44, label %45, label %.thread

45:                                               ; preds = %37
  %46 = getelementptr inbounds nuw i8, ptr %41, i64 488
  %47 = load ptr, ptr %46, align 8, !tbaa !93
  %48 = getelementptr inbounds nuw i8, ptr %47, i64 32
  %49 = load ptr, ptr %48, align 8, !tbaa !134
  %50 = call i32 %49(ptr noundef nonnull %2, ptr noundef nonnull %6, ptr noundef nonnull %5, i16 noundef zeroext 20) #18
  %.not = icmp eq i32 %50, 0
  br i1 %.not, label %51, label %.thread

.thread:                                          ; preds = %37, %45
  %.026 = phi i32 [ %50, %45 ], [ -20, %37 ]
  store i32 %.026, ptr %6, align 4, !tbaa !63
  br label %51

51:                                               ; preds = %.thread, %45
  %52 = getelementptr inbounds nuw i8, ptr %3, i64 480
  %53 = load ptr, ptr %52, align 8, !tbaa !156
  %.not22 = icmp eq ptr %53, null
  br i1 %.not22, label %58, label %54

54:                                               ; preds = %51
  %55 = load i32, ptr %6, align 4, !tbaa !63
  %56 = getelementptr inbounds nuw i8, ptr %3, i64 488
  %57 = load ptr, ptr %56, align 8, !tbaa !158
  call void %53(i32 noundef %55, ptr noundef %57) #18
  br label %58

58:                                               ; preds = %54, %51
  call void @free(ptr noundef nonnull %3) #18
  br label %59

59:                                               ; preds = %58, %22
  call void @llvm.lifetime.end.p0(i64 4, ptr nonnull %6) #18
  call void @llvm.lifetime.end.p0(i64 4, ptr nonnull %5) #18
  ret void
}